target datalayout = "e-m:e-p270:32:32-p271:32:32-p272:64:64-i64:64-i128:128-f80:128-n8:16:32:64-S128"
target triple = "x86_64-pc-linux-gnu"

%struct.AVIOInterruptCB = type { ptr, ptr }
%struct.AVRational = type { i32, i32 }
%struct.InputStream = type { ptr, ptr, i32, ptr, i32, ptr, ptr, ptr, %struct.AVRational, i32, i32, ptr, i32 }
%struct.AVCodecParameters = type { i32, i32, i32, ptr, i32, ptr, i32, i32, i64, i32, i32, i32, i32, i32, i32, %struct.AVRational, %struct.AVRational, i32, i32, i32, i32, i32, i32, i32, %struct.AVChannelLayout, i32, i32, i32, i32, i32, i32 }
%struct.AVChannelLayout = type { i32, i32, %union.anon, ptr }
%union.anon = type { i64 }
%struct.DemuxStream = type { %struct.InputStream, [32 x i8], i32, i32, double, i32, i32, i32, i32, i32, i32, i32, i32, i32, i32, i32, i64, i64, i64, ptr, ptr, %struct.DecoderOpts, [16 x i8], ptr, ptr, i64, i64, i64, i64, i64 }
%struct.DecoderOpts = type { i32, ptr, ptr, ptr, ptr, i32, i32, ptr, i32, %struct.AVRational, %struct.AVRational }
%struct.Demuxer = type { %struct.InputFile, [32 x i8], i64, i64, i64, i64, i32, i32, i32, %struct.Timestamp, %struct.Timestamp, %struct.Timestamp, i32, float, double, float, ptr, ptr, i32, i32, i32 }
%struct.InputFile = type { ptr, i32, ptr, i64, i32, i64, i64, i64, ptr, i32 }
%struct.Timestamp = type { i64, %struct.AVRational }
%struct.AVFormatContext = type { ptr, ptr, ptr, ptr, ptr, i32, i32, ptr, i32, ptr, i32, ptr, ptr, i64, i64, i64, i32, i32, i32, i64, i64, ptr, i32, i32, ptr, i32, i32, i32, i32, ptr, i64, i32, i32, %struct.AVIOInterruptCB, i32, i32, i32, i32, i64, i32, i32, i32, i32, i32, i32, i32, i32, i32, i32, i32, i32, i64, i32, i32, i32, i32, i32, ptr, ptr, ptr, ptr, i32, ptr, ptr, ptr, ptr, i32, ptr, ptr, i64, ptr, ptr, ptr, i64 }
%struct.Decoder = type { ptr, i32, ptr, i32, i64, i64, i64 }

@.str.37 = private unnamed_addr constant [22 x i8] c"Input file #%d (%s):\0A\00", align 1
@.str.38 = private unnamed_addr constant [29 x i8] c"  Input stream #%d:%d (%s): \00", align 1
@.str.39 = private unnamed_addr constant [31 x i8] c"%lu packets read (%lu bytes); \00", align 1
@.str.40 = private unnamed_addr constant [38 x i8] c"%lu frames decoded; %lu decode errors\00", align 1
@.str.41 = private unnamed_addr constant [15 x i8] c" (%lu samples)\00", align 1
@.str.42 = private unnamed_addr constant [3 x i8] c"; \00", align 1
@.str.43 = private unnamed_addr constant [2 x i8] c"\0A\00", align 1
@.str.44 = private unnamed_addr constant [42 x i8] c"  Total: %lu packets (%lu bytes) demuxed\0A\00", align 1

; Function Attrs: nounwind uwtable
define internal ptr @ds_from_ist(ptr noundef %0) #0 {
  %2 = alloca ptr, align 8
  store ptr %0, ptr %2, align 8, !tbaa !8
  %3 = load ptr, ptr %2, align 8, !tbaa !8
  ret ptr %3
}

; Function Attrs: nounwind uwtable
define internal void @ist_free(ptr noundef %0) #0 {
  %2 = alloca ptr, align 8
  %3 = alloca ptr, align 8
  %4 = alloca ptr, align 8
  %5 = alloca i32, align 4
  store ptr %0, ptr %2, align 8, !tbaa !80
  call void @llvm.lifetime.start.p0(i64 8, ptr %3) #12
  %6 = load ptr, ptr %2, align 8, !tbaa !80
  %7 = load ptr, ptr %6, align 8, !tbaa !8
  store ptr %7, ptr %3, align 8, !tbaa !8
  call void @llvm.lifetime.start.p0(i64 8, ptr %4) #12
  %8 = load ptr, ptr %3, align 8, !tbaa !8
  %9 = icmp ne ptr %8, null
  br i1 %9, label %11, label %10

10:                                               ; preds = %1
  store i32 1, ptr %5, align 4
  br label %30

11:                                               ; preds = %1
  %12 = load ptr, ptr %3, align 8, !tbaa !8
  %13 = call ptr @ds_from_ist(ptr noundef %12)
  store ptr %13, ptr %4, align 8, !tbaa !11
  %14 = load ptr, ptr %3, align 8, !tbaa !8
  %15 = getelementptr inbounds nuw %struct.InputStream, ptr %14, i32 0, i32 6
  call void @dec_free(ptr noundef %15)
  %16 = load ptr, ptr %4, align 8, !tbaa !11
  %17 = getelementptr inbounds nuw %struct.DemuxStream, ptr %16, i32 0, i32 20
  call void @av_dict_free(ptr noundef %17)
  %18 = load ptr, ptr %3, align 8, !tbaa !8
  %19 = getelementptr inbounds nuw %struct.InputStream, ptr %18, i32 0, i32 11
  call void @av_freep(ptr noundef %19)
  %20 = load ptr, ptr %4, align 8, !tbaa !11
  %21 = getelementptr inbounds nuw %struct.DemuxStream, ptr %20, i32 0, i32 21
  %22 = getelementptr inbounds nuw %struct.DecoderOpts, ptr %21, i32 0, i32 7
  call void @av_freep(ptr noundef %22)
  %23 = load ptr, ptr %3, align 8, !tbaa !8
  %24 = getelementptr inbounds nuw %struct.InputStream, ptr %23, i32 0, i32 5
  call void @avcodec_parameters_free(ptr noundef %24)
  %25 = load ptr, ptr %4, align 8, !tbaa !11
  %26 = getelementptr inbounds nuw %struct.DemuxStream, ptr %25, i32 0, i32 23
  call void @av_frame_free(ptr noundef %26)
  %27 = load ptr, ptr %4, align 8, !tbaa !11
  %28 = getelementptr inbounds nuw %struct.DemuxStream, ptr %27, i32 0, i32 24
  call void @av_bsf_free(ptr noundef %28)
  %29 = load ptr, ptr %2, align 8, !tbaa !80
  call void @av_freep(ptr noundef %29)
  store i32 0, ptr %5, align 4
  br label %30

30:                                               ; preds = %11, %10
  call void @llvm.lifetime.end.p0(i64 8, ptr %4) #12
  call void @llvm.lifetime.end.p0(i64 8, ptr %3) #12
  %31 = load i32, ptr %5, align 4
  switch i32 %31, label %33 [
    i32 0, label %32
    i32 1, label %32
  ]

32:                                               ; preds = %30, %30
  ret void

33:                                               ; preds = %30
  unreachable
}

; Function Attrs: nounwind uwtable
define internal void @demux_final_stats(ptr noundef %0) #0 {
  %2 = alloca ptr, align 8
  %3 = alloca ptr, align 8
  %4 = alloca i64, align 8
  %5 = alloca i64, align 8
  %6 = alloca i32, align 4
  %7 = alloca i32, align 4
  %8 = alloca ptr, align 8
  %9 = alloca ptr, align 8
  %10 = alloca i32, align 4
  store ptr %0, ptr %2, align 8, !tbaa !44
  call void @llvm.lifetime.start.p0(i64 8, ptr %3) #12
  %11 = load ptr, ptr %2, align 8, !tbaa !44
  %12 = getelementptr inbounds nuw %struct.Demuxer, ptr %11, i32 0, i32 0
  store ptr %12, ptr %3, align 8, !tbaa !43
  call void @llvm.lifetime.start.p0(i64 8, ptr %4) #12
  store i64 0, ptr %4, align 8, !tbaa !58
  call void @llvm.lifetime.start.p0(i64 8, ptr %5) #12
  store i64 0, ptr %5, align 8, !tbaa !58
  %13 = load ptr, ptr %3, align 8, !tbaa !43
  %14 = load ptr, ptr %3, align 8, !tbaa !43
  %15 = getelementptr inbounds nuw %struct.InputFile, ptr %14, i32 0, i32 1
  %16 = load i32, ptr %15, align 8, !tbaa !59
  %17 = load ptr, ptr %3, align 8, !tbaa !43
  %18 = getelementptr inbounds nuw %struct.InputFile, ptr %17, i32 0, i32 2
  %19 = load ptr, ptr %18, align 8, !tbaa !60
  %20 = getelementptr inbounds nuw %struct.AVFormatContext, ptr %19, i32 0, i32 12
  %21 = load ptr, ptr %20, align 8, !tbaa !61
  call void (ptr, i32, ptr, ...) @av_log(ptr noundef %13, i32 noundef 40, ptr noundef @.str.37, i32 noundef %16, ptr noundef %21)
  call void @llvm.lifetime.start.p0(i64 4, ptr %6) #12
  store i32 0, ptr %6, align 4, !tbaa !4
  br label %22

22:                                               ; preds = %109, %1
  %23 = load i32, ptr %6, align 4, !tbaa !4
  %24 = load ptr, ptr %3, align 8, !tbaa !43
  %25 = getelementptr inbounds nuw %struct.InputFile, ptr %24, i32 0, i32 9
  %26 = load i32, ptr %25, align 8, !tbaa !55
  %27 = icmp slt i32 %23, %26
  br i1 %27, label %29, label %28

28:                                               ; preds = %22
  store i32 2, ptr %7, align 4
  call void @llvm.lifetime.end.p0(i64 4, ptr %6) #12
  br label %112

29:                                               ; preds = %22
  call void @llvm.lifetime.start.p0(i64 8, ptr %8) #12
  %30 = load ptr, ptr %3, align 8, !tbaa !43
  %31 = getelementptr inbounds nuw %struct.InputFile, ptr %30, i32 0, i32 8
  %32 = load ptr, ptr %31, align 8, !tbaa !56
  %33 = load i32, ptr %6, align 4, !tbaa !4
  %34 = sext i32 %33 to i64
  %35 = getelementptr inbounds ptr, ptr %32, i64 %34
  %36 = load ptr, ptr %35, align 8, !tbaa !8
  store ptr %36, ptr %8, align 8, !tbaa !8
  call void @llvm.lifetime.start.p0(i64 8, ptr %9) #12
  %37 = load ptr, ptr %8, align 8, !tbaa !8
  %38 = call ptr @ds_from_ist(ptr noundef %37)
  store ptr %38, ptr %9, align 8, !tbaa !11
  call void @llvm.lifetime.start.p0(i64 4, ptr %10) #12
  %39 = load ptr, ptr %8, align 8, !tbaa !8
  %40 = getelementptr inbounds nuw %struct.InputStream, ptr %39, i32 0, i32 5
  %41 = load ptr, ptr %40, align 8, !tbaa !13
  %42 = getelementptr inbounds nuw %struct.AVCodecParameters, ptr %41, i32 0, i32 0
  %43 = load i32, ptr %42, align 8, !tbaa !24
  store i32 %43, ptr %10, align 4, !tbaa !4
  %44 = load ptr, ptr %9, align 8, !tbaa !11
  %45 = getelementptr inbounds nuw %struct.DemuxStream, ptr %44, i32 0, i32 6
  %46 = load i32, ptr %45, align 4, !tbaa !30
  %47 = icmp ne i32 %46, 0
  br i1 %47, label %51, label %48

48:                                               ; preds = %29
  %49 = load i32, ptr %10, align 4, !tbaa !4
  %50 = icmp eq i32 %49, 4
  br i1 %50, label %51, label %52

51:                                               ; preds = %48, %29
  store i32 4, ptr %7, align 4
  br label %106

52:                                               ; preds = %48
  %53 = load ptr, ptr %9, align 8, !tbaa !11
  %54 = getelementptr inbounds nuw %struct.DemuxStream, ptr %53, i32 0, i32 26
  %55 = load i64, ptr %54, align 8, !tbaa !71
  %56 = load i64, ptr %5, align 8, !tbaa !58
  %57 = add i64 %56, %55
  store i64 %57, ptr %5, align 8, !tbaa !58
  %58 = load ptr, ptr %9, align 8, !tbaa !11
  %59 = getelementptr inbounds nuw %struct.DemuxStream, ptr %58, i32 0, i32 25
  %60 = load i64, ptr %59, align 8, !tbaa !72
  %61 = load i64, ptr %4, align 8, !tbaa !58
  %62 = add i64 %61, %60
  store i64 %62, ptr %4, align 8, !tbaa !58
  %63 = load ptr, ptr %3, align 8, !tbaa !43
  %64 = load ptr, ptr %3, align 8, !tbaa !43
  %65 = getelementptr inbounds nuw %struct.InputFile, ptr %64, i32 0, i32 1
  %66 = load i32, ptr %65, align 8, !tbaa !59
  %67 = load i32, ptr %6, align 4, !tbaa !4
  %68 = load i32, ptr %10, align 4, !tbaa !4
  %69 = call ptr @av_get_media_type_string(i32 noundef %68)
  call void (ptr, i32, ptr, ...) @av_log(ptr noundef %63, i32 noundef 40, ptr noundef @.str.38, i32 noundef %66, i32 noundef %67, ptr noundef %69)
  %70 = load ptr, ptr %3, align 8, !tbaa !43
  %71 = load ptr, ptr %9, align 8, !tbaa !11
  %72 = getelementptr inbounds nuw %struct.DemuxStream, ptr %71, i32 0, i32 25
  %73 = load i64, ptr %72, align 8, !tbaa !72
  %74 = load ptr, ptr %9, align 8, !tbaa !11
  %75 = getelementptr inbounds nuw %struct.DemuxStream, ptr %74, i32 0, i32 26
  %76 = load i64, ptr %75, align 8, !tbaa !71
  call void (ptr, i32, ptr, ...) @av_log(ptr noundef %70, i32 noundef 40, ptr noundef @.str.39, i64 noundef %73, i64 noundef %76)
  %77 = load ptr, ptr %9, align 8, !tbaa !11
  %78 = getelementptr inbounds nuw %struct.DemuxStream, ptr %77, i32 0, i32 5
  %79 = load i32, ptr %78, align 8, !tbaa !73
  %80 = icmp ne i32 %79, 0
  br i1 %80, label %81, label %104

81:                                               ; preds = %52
  %82 = load ptr, ptr %3, align 8, !tbaa !43
  %83 = load ptr, ptr %8, align 8, !tbaa !8
  %84 = getelementptr inbounds nuw %struct.InputStream, ptr %83, i32 0, i32 6
  %85 = load ptr, ptr %84, align 8, !tbaa !74
  %86 = getelementptr inbounds nuw %struct.Decoder, ptr %85, i32 0, i32 4
  %87 = load i64, ptr %86, align 8, !tbaa !75
  %88 = load ptr, ptr %8, align 8, !tbaa !8
  %89 = getelementptr inbounds nuw %struct.InputStream, ptr %88, i32 0, i32 6
  %90 = load ptr, ptr %89, align 8, !tbaa !74
  %91 = getelementptr inbounds nuw %struct.Decoder, ptr %90, i32 0, i32 6
  %92 = load i64, ptr %91, align 8, !tbaa !77
  call void (ptr, i32, ptr, ...) @av_log(ptr noundef %82, i32 noundef 40, ptr noundef @.str.40, i64 noundef %87, i64 noundef %92)
  %93 = load i32, ptr %10, align 4, !tbaa !4
  %94 = icmp eq i32 %93, 1
  br i1 %94, label %95, label %102

95:                                               ; preds = %81
  %96 = load ptr, ptr %3, align 8, !tbaa !43
  %97 = load ptr, ptr %8, align 8, !tbaa !8
  %98 = getelementptr inbounds nuw %struct.InputStream, ptr %97, i32 0, i32 6
  %99 = load ptr, ptr %98, align 8, !tbaa !74
  %100 = getelementptr inbounds nuw %struct.Decoder, ptr %99, i32 0, i32 5
  %101 = load i64, ptr %100, align 8, !tbaa !78
  call void (ptr, i32, ptr, ...) @av_log(ptr noundef %96, i32 noundef 40, ptr noundef @.str.41, i64 noundef %101)
  br label %102

102:                                              ; preds = %95, %81
  %103 = load ptr, ptr %3, align 8, !tbaa !43
  call void (ptr, i32, ptr, ...) @av_log(ptr noundef %103, i32 noundef 40, ptr noundef @.str.42)
  br label %104

104:                                              ; preds = %102, %52
  %105 = load ptr, ptr %3, align 8, !tbaa !43
  call void (ptr, i32, ptr, ...) @av_log(ptr noundef %105, i32 noundef 40, ptr noundef @.str.43)
  store i32 0, ptr %7, align 4
  br label %106

106:                                              ; preds = %104, %51
  call void @llvm.lifetime.end.p0(i64 4, ptr %10) #12
  call void @llvm.lifetime.end.p0(i64 8, ptr %9) #12
  call void @llvm.lifetime.end.p0(i64 8, ptr %8) #12
  %107 = load i32, ptr %7, align 4
  switch i32 %107, label %116 [
    i32 0, label %108
    i32 4, label %109
  ]

108:                                              ; preds = %106
  br label %109

109:                                              ; preds = %108, %106
  %110 = load i32, ptr %6, align 4, !tbaa !4
  %111 = add nsw i32 %110, 1
  store i32 %111, ptr %6, align 4, !tbaa !4
  br label %22, !llvm.loop !79

112:                                              ; preds = %28
  %113 = load ptr, ptr %3, align 8, !tbaa !43
  %114 = load i64, ptr %4, align 8, !tbaa !58
  %115 = load i64, ptr %5, align 8, !tbaa !58
  call void (ptr, i32, ptr, ...) @av_log(ptr noundef %113, i32 noundef 40, ptr noundef @.str.44, i64 noundef %114, i64 noundef %115)
  call void @llvm.lifetime.end.p0(i64 8, ptr %5) #12
  call void @llvm.lifetime.end.p0(i64 8, ptr %4) #12
  call void @llvm.lifetime.end.p0(i64 8, ptr %3) #12
  ret void

116:                                              ; preds = %106
  unreachable
}

; Function Attrs: nounwind uwtable
define internal ptr @demuxer_from_ifile(ptr noundef %0) #0 {
  %2 = alloca ptr, align 8
  store ptr %0, ptr %2, align 8, !tbaa !43
  %3 = load ptr, ptr %2, align 8, !tbaa !43
  ret ptr %3
}

; Function Attrs: nounwind uwtable
define void @ifile_close(ptr noundef %0) #0 {
  %2 = alloca ptr, align 8
  %3 = alloca ptr, align 8
  %4 = alloca ptr, align 8
  %5 = alloca i32, align 4
  %6 = alloca i32, align 4
  store ptr %0, ptr %2, align 8, !tbaa !41
  call void @llvm.lifetime.start.p0(i64 8, ptr %3) #12
  %7 = load ptr, ptr %2, align 8, !tbaa !41
  %8 = load ptr, ptr %7, align 8, !tbaa !43
  store ptr %8, ptr %3, align 8, !tbaa !43
  call void @llvm.lifetime.start.p0(i64 8, ptr %4) #12
  %9 = load ptr, ptr %3, align 8, !tbaa !43
  %10 = call ptr @demuxer_from_ifile(ptr noundef %9)
  store ptr %10, ptr %4, align 8, !tbaa !44
  %11 = load ptr, ptr %3, align 8, !tbaa !43
  %12 = icmp ne ptr %11, null
  br i1 %12, label %14, label %13

13:                                               ; preds = %1
  store i32 1, ptr %5, align 4
  br label %47

14:                                               ; preds = %1
  %15 = load ptr, ptr %4, align 8, !tbaa !44
  %16 = getelementptr inbounds nuw %struct.Demuxer, ptr %15, i32 0, i32 18
  %17 = load i32, ptr %16, align 8, !tbaa !46
  %18 = icmp ne i32 %17, 0
  br i1 %18, label %19, label %21

19:                                               ; preds = %14
  %20 = load ptr, ptr %4, align 8, !tbaa !44
  call void @demux_final_stats(ptr noundef %20)
  br label %21

21:                                               ; preds = %19, %14
  call void @llvm.lifetime.start.p0(i64 4, ptr %6) #12
  store i32 0, ptr %6, align 4, !tbaa !4
  br label %22

22:                                               ; preds = %36, %21
  %23 = load i32, ptr %6, align 4, !tbaa !4
  %24 = load ptr, ptr %3, align 8, !tbaa !43
  %25 = getelementptr inbounds nuw %struct.InputFile, ptr %24, i32 0, i32 9
  %26 = load i32, ptr %25, align 8, !tbaa !55
  %27 = icmp slt i32 %23, %26
  br i1 %27, label %29, label %28

28:                                               ; preds = %22
  store i32 2, ptr %5, align 4
  call void @llvm.lifetime.end.p0(i64 4, ptr %6) #12
  br label %39

29:                                               ; preds = %22
  %30 = load ptr, ptr %3, align 8, !tbaa !43
  %31 = getelementptr inbounds nuw %struct.InputFile, ptr %30, i32 0, i32 8
  %32 = load ptr, ptr %31, align 8, !tbaa !56
  %33 = load i32, ptr %6, align 4, !tbaa !4
  %34 = sext i32 %33 to i64
  %35 = getelementptr inbounds ptr, ptr %32, i64 %34
  call void @ist_free(ptr noundef %35)
  br label %36

36:                                               ; preds = %29
  %37 = load i32, ptr %6, align 4, !tbaa !4
  %38 = add nsw i32 %37, 1
  store i32 %38, ptr %6, align 4, !tbaa !4
  br label %22, !llvm.loop !57

39:                                               ; preds = %28
  %40 = load ptr, ptr %3, align 8, !tbaa !43
  %41 = getelementptr inbounds nuw %struct.InputFile, ptr %40, i32 0, i32 8
  call void @av_freep(ptr noundef %41)
  %42 = load ptr, ptr %3, align 8, !tbaa !43
  %43 = getelementptr inbounds nuw %struct.InputFile, ptr %42, i32 0, i32 2
  call void @avformat_close_input(ptr noundef %43)
  %44 = load ptr, ptr %4, align 8, !tbaa !44
  %45 = getelementptr inbounds nuw %struct.Demuxer, ptr %44, i32 0, i32 17
  call void @av_packet_free(ptr noundef %45)
  %46 = load ptr, ptr %2, align 8, !tbaa !41
  call void @av_freep(ptr noundef %46)
  store i32 0, ptr %5, align 4
  br label %47

47:                                               ; preds = %39, %13
  call void @llvm.lifetime.end.p0(i64 8, ptr %4) #12
  call void @llvm.lifetime.end.p0(i64 8, ptr %3) #12
  %48 = load i32, ptr %5, align 4
  switch i32 %48, label %50 [
    i32 0, label %49
    i32 1, label %49
  ]

49:                                               ; preds = %47, %47
  ret void

50:                                               ; preds = %47
  unreachable
}