; Function Attrs: nounwind uwtable
define void @ifile_close(ptr noundef %0) local_unnamed_addr #0 {
  %2 = load ptr, ptr %0, align 8, !tbaa !36
  %.not = icmp eq ptr %2, null
  br i1 %.not, label %85, label %3

3:                                                ; preds = %1
  %4 = getelementptr inbounds nuw i8, ptr %2, i64 248
  %5 = load i32, ptr %4, align 8, !tbaa !37
  %.not14 = icmp eq i32 %5, 0
  br i1 %.not14, label %61, label %6

6:                                                ; preds = %3
  %7 = getelementptr inbounds nuw i8, ptr %2, i64 8
  %8 = load i32, ptr %7, align 8, !tbaa !46
  %9 = getelementptr inbounds nuw i8, ptr %2, i64 16
  %10 = load ptr, ptr %9, align 8, !tbaa !47
  %11 = getelementptr inbounds nuw i8, ptr %10, i64 88
  %12 = load ptr, ptr %11, align 8, !tbaa !48
  tail call void (ptr, i32, ptr, ...) @av_log(ptr noundef nonnull %2, i32 noundef 40, ptr noundef nonnull @.str.37, i32 noundef %8, ptr noundef %12) #14
  %13 = getelementptr inbounds nuw i8, ptr %2, i64 72
  %14 = load i32, ptr %13, align 8, !tbaa !58
  %15 = icmp sgt i32 %14, 0
  br i1 %15, label %.lr.ph.i, label %demux_final_stats.exit

.lr.ph.i:                                         ; preds = %6
  %16 = getelementptr inbounds nuw i8, ptr %2, i64 64
  br label %17

17:                                               ; preds = %57, %.lr.ph.i
  %18 = phi i32 [ %14, %.lr.ph.i ], [ %58, %57 ]
  %indvars.iv.i = phi i64 [ 0, %.lr.ph.i ], [ %indvars.iv.next.i, %57 ]
  %.042.i = phi i64 [ 0, %.lr.ph.i ], [ %.1.i, %57 ]
  %.03641.i = phi i64 [ 0, %.lr.ph.i ], [ %.137.i, %57 ]
  %19 = load ptr, ptr %16, align 8, !tbaa !59
  %20 = getelementptr inbounds nuw ptr, ptr %19, i64 %indvars.iv.i
  %21 = load ptr, ptr %20, align 8, !tbaa !60
  %22 = getelementptr inbounds nuw i8, ptr %21, i64 40
  %23 = load ptr, ptr %22, align 8, !tbaa !4
  %24 = load i32, ptr %23, align 8, !tbaa !19
  %25 = getelementptr inbounds nuw i8, ptr %21, i64 148
  %26 = load i32, ptr %25, align 4, !tbaa !25
  %27 = icmp ne i32 %26, 0
  %28 = icmp eq i32 %24, 4
  %or.cond.i = select i1 %27, i1 true, i1 %28
  br i1 %or.cond.i, label %57, label %29

29:                                               ; preds = %17
  %30 = getelementptr inbounds nuw i8, ptr %21, i64 352
  %31 = load i64, ptr %30, align 8, !tbaa !62
  %32 = add i64 %31, %.03641.i
  %33 = getelementptr inbounds nuw i8, ptr %21, i64 344
  %34 = load i64, ptr %33, align 8, !tbaa !63
  %35 = add i64 %34, %.042.i
  %36 = load i32, ptr %7, align 8, !tbaa !46
  %37 = tail call ptr @av_get_media_type_string(i32 noundef %24) #14
  %38 = trunc nuw nsw i64 %indvars.iv.i to i32
  tail call void (ptr, i32, ptr, ...) @av_log(ptr noundef nonnull %2, i32 noundef 40, ptr noundef nonnull @.str.38, i32 noundef %36, i32 noundef %38, ptr noundef %37) #14
  %39 = load i64, ptr %33, align 8, !tbaa !63
  %40 = load i64, ptr %30, align 8, !tbaa !62
  tail call void (ptr, i32, ptr, ...) @av_log(ptr noundef nonnull %2, i32 noundef 40, ptr noundef nonnull @.str.39, i64 noundef %39, i64 noundef %40) #14
  %41 = getelementptr inbounds nuw i8, ptr %21, i64 144
  %42 = load i32, ptr %41, align 8, !tbaa !64
  %.not.i = icmp eq i32 %42, 0
  br i1 %.not.i, label %56, label %43

43:                                               ; preds = %29
  %44 = getelementptr inbounds nuw i8, ptr %21, i64 48
  %45 = load ptr, ptr %44, align 8, !tbaa !65
  %46 = getelementptr inbounds nuw i8, ptr %45, i64 32
  %47 = load i64, ptr %46, align 8, !tbaa !66
  %48 = getelementptr inbounds nuw i8, ptr %45, i64 48
  %49 = load i64, ptr %48, align 8, !tbaa !68
  tail call void (ptr, i32, ptr, ...) @av_log(ptr noundef nonnull %2, i32 noundef 40, ptr noundef nonnull @.str.40, i64 noundef %47, i64 noundef %49) #14
  %50 = icmp eq i32 %24, 1
  br i1 %50, label %51, label %55

51:                                               ; preds = %43
  %52 = load ptr, ptr %44, align 8, !tbaa !65
  %53 = getelementptr inbounds nuw i8, ptr %52, i64 40
  %54 = load i64, ptr %53, align 8, !tbaa !69
  tail call void (ptr, i32, ptr, ...) @av_log(ptr noundef nonnull %2, i32 noundef 40, ptr noundef nonnull @.str.41, i64 noundef %54) #14
  br label %55

55:                                               ; preds = %51, %43
  tail call void (ptr, i32, ptr, ...) @av_log(ptr noundef nonnull %2, i32 noundef 40, ptr noundef nonnull @.str.42) #14
  br label %56

56:                                               ; preds = %55, %29
  tail call void (ptr, i32, ptr, ...) @av_log(ptr noundef nonnull %2, i32 noundef 40, ptr noundef nonnull @.str.43) #14
  %.pre.i = load i32, ptr %13, align 8, !tbaa !58
  br label %57

57:                                               ; preds = %56, %17
  %58 = phi i32 [ %.pre.i, %56 ], [ %18, %17 ]
  %.137.i = phi i64 [ %32, %56 ], [ %.03641.i, %17 ]
  %.1.i = phi i64 [ %35, %56 ], [ %.042.i, %17 ]
  %indvars.iv.next.i = add nuw nsw i64 %indvars.iv.i, 1
  %59 = sext i32 %58 to i64
  %60 = icmp slt i64 %indvars.iv.next.i, %59
  br i1 %60, label %17, label %demux_final_stats.exit, !llvm.loop !70

demux_final_stats.exit:                           ; preds = %57, %6
  %.036.lcssa.i = phi i64 [ 0, %6 ], [ %.137.i, %57 ]
  %.0.lcssa.i = phi i64 [ 0, %6 ], [ %.1.i, %57 ]
  tail call void (ptr, i32, ptr, ...) @av_log(ptr noundef nonnull %2, i32 noundef 40, ptr noundef nonnull @.str.44, i64 noundef %.0.lcssa.i, i64 noundef %.036.lcssa.i) #14
  br label %61

61:                                               ; preds = %demux_final_stats.exit, %3
  %62 = getelementptr inbounds nuw i8, ptr %2, i64 72
  %63 = load i32, ptr %62, align 8, !tbaa !58
  %64 = icmp sgt i32 %63, 0
  br i1 %64, label %.lr.ph, label %._crit_edge

.lr.ph:                                           ; preds = %61
  %65 = getelementptr inbounds nuw i8, ptr %2, i64 64
  br label %69

._crit_edge:                                      ; preds = %ist_free.exit, %61
  %66 = getelementptr inbounds nuw i8, ptr %2, i64 64
  tail call void @av_freep(ptr noundef nonnull %66) #14
  %67 = getelementptr inbounds nuw i8, ptr %2, i64 16
  tail call void @avformat_close_input(ptr noundef nonnull %67) #14
  %68 = getelementptr inbounds nuw i8, ptr %2, i64 240
  tail call void @av_packet_free(ptr noundef nonnull %68) #14
  tail call void @av_freep(ptr noundef nonnull %0) #14
  br label %85

69:                                               ; preds = %.lr.ph, %ist_free.exit
  %70 = phi i32 [ %63, %.lr.ph ], [ %82, %ist_free.exit ]
  %indvars.iv = phi i64 [ 0, %.lr.ph ], [ %indvars.iv.next, %ist_free.exit ]
  %71 = load ptr, ptr %65, align 8, !tbaa !59
  %72 = getelementptr inbounds nuw ptr, ptr %71, i64 %indvars.iv
  %73 = load ptr, ptr %72, align 8, !tbaa !60
  %.not.i15 = icmp eq ptr %73, null
  br i1 %.not.i15, label %ist_free.exit, label %74

74:                                               ; preds = %69
  %75 = getelementptr inbounds nuw i8, ptr %73, i64 48
  tail call void @dec_free(ptr noundef nonnull %75) #14
  %76 = getelementptr inbounds nuw i8, ptr %73, i64 224
  tail call void @av_dict_free(ptr noundef nonnull %76) #14
  %77 = getelementptr inbounds nuw i8, ptr %73, i64 80
  tail call void @av_freep(ptr noundef nonnull %77) #14
  %78 = getelementptr inbounds nuw i8, ptr %73, i64 280
  tail call void @av_freep(ptr noundef nonnull %78) #14
  %79 = getelementptr inbounds nuw i8, ptr %73, i64 40
  tail call void @avcodec_parameters_free(ptr noundef nonnull %79) #14
  %80 = getelementptr inbounds nuw i8, ptr %73, i64 328
  tail call void @av_frame_free(ptr noundef nonnull %80) #14
  %81 = getelementptr inbounds nuw i8, ptr %73, i64 336
  tail call void @av_bsf_free(ptr noundef nonnull %81) #14
  tail call void @av_freep(ptr noundef nonnull %72) #14
  %.pre = load i32, ptr %62, align 8, !tbaa !58
  br label %ist_free.exit

ist_free.exit:                                    ; preds = %69, %74
  %82 = phi i32 [ %70, %69 ], [ %.pre, %74 ]
  %indvars.iv.next = add nuw nsw i64 %indvars.iv, 1
  %83 = sext i32 %82 to i64
  %84 = icmp slt i64 %indvars.iv.next, %83
  br i1 %84, label %69, label %._crit_edge, !llvm.loop !71

85:                                               ; preds = %1, %._crit_edge
  ret void
}